target datalayout = "e-m:e-p270:32:32-p271:32:32-p272:64:64-i64:64-i128:128-f80:128-n8:16:32:64-S128"
target triple = "x86_64-pc-linux-gnu"

@.str.3 = private unnamed_addr constant [2 x i8] c"\0A\00", align 1
@.str.4 = private unnamed_addr constant [34 x i8] c"    submod [options] [selection]\0A\00", align 1
@.str.5 = private unnamed_addr constant [78 x i8] c"This pass identifies all cells with the 'submod' attribute and moves them to\0A\00", align 1
@.str.6 = private unnamed_addr constant [76 x i8] c"a newly created module. The value of the attribute is used as name for the\0A\00", align 1
@.str.7 = private unnamed_addr constant [70 x i8] c"cell that replaces the group of cells with the same attribute value.\0A\00", align 1
@.str.8 = private unnamed_addr constant [77 x i8] c"This pass can be used to create a design hierarchy in flat design. This can\0A\00", align 1
@.str.9 = private unnamed_addr constant [58 x i8] c"be useful for analyzing or reverse-engineering a design.\0A\00", align 1
@.str.10 = private unnamed_addr constant [74 x i8] c"This pass only operates on completely selected modules with no processes\0A\00", align 1
@.str.11 = private unnamed_addr constant [14 x i8] c"or memories.\0A\00", align 1
@.str.12 = private unnamed_addr constant [11 x i8] c"    -copy\0A\00", align 1
@.str.13 = private unnamed_addr constant [80 x i8] c"        by default the cells are 'moved' from the source module and the source\0A\00", align 1
@.str.14 = private unnamed_addr constant [77 x i8] c"        module will use an instance of the new module after this command is\0A\00", align 1
@.str.15 = private unnamed_addr constant [68 x i8] c"        finished. call with -copy to not modify the source module.\0A\00", align 1
@.str.16 = private unnamed_addr constant [18 x i8] c"    -name <name>\0A\00", align 1
@.str.17 = private unnamed_addr constant [78 x i8] c"        don't use the 'submod' attribute but instead use the selection. only\0A\00", align 1
@.str.18 = private unnamed_addr constant [82 x i8] c"        objects from one module might be selected. the value of the -name option\0A\00", align 1
@.str.19 = private unnamed_addr constant [65 x i8] c"        is used as the value of the 'submod' attribute instead.\0A\00", align 1
@.str.20 = private unnamed_addr constant [13 x i8] c"    -hidden\0A\00", align 1
@.str.21 = private unnamed_addr constant [82 x i8] c"        instead of creating submodule ports with public names, create ports with\0A\00", align 1
@.str.22 = private unnamed_addr constant [79 x i8] c"        private names so that a subsequent 'flatten; clean' call will restore\0A\00", align 1
@.str.23 = private unnamed_addr constant [57 x i8] c"        the original module with original public names.\0A\00", align 1

; Function Attrs: mustprogress uwtable
define internal void @_ZN12_GLOBAL__N_110SubmodPass4helpEv(ptr noundef nonnull align 8 dereferenceable(104) %0) unnamed_addr #4 align 2 {
  %2 = alloca ptr, align 8
  store ptr %0, ptr %2, align 8
  call void (ptr, ...) @_ZN5Yosys3logEPKcz(ptr noundef @.str.3)
  call void (ptr, ...) @_ZN5Yosys3logEPKcz(ptr noundef @.str.4)
  call void (ptr, ...) @_ZN5Yosys3logEPKcz(ptr noundef @.str.3)
  call void (ptr, ...) @_ZN5Yosys3logEPKcz(ptr noundef @.str.5)
  call void (ptr, ...) @_ZN5Yosys3logEPKcz(ptr noundef @.str.6)
  call void (ptr, ...) @_ZN5Yosys3logEPKcz(ptr noundef @.str.7)
  call void (ptr, ...) @_ZN5Yosys3logEPKcz(ptr noundef @.str.3)
  call void (ptr, ...) @_ZN5Yosys3logEPKcz(ptr noundef @.str.8)
  call void (ptr, ...) @_ZN5Yosys3logEPKcz(ptr noundef @.str.9)
  call void (ptr, ...) @_ZN5Yosys3logEPKcz(ptr noundef @.str.3)
  call void (ptr, ...) @_ZN5Yosys3logEPKcz(ptr noundef @.str.10)
  call void (ptr, ...) @_ZN5Yosys3logEPKcz(ptr noundef @.str.11)
  call void (ptr, ...) @_ZN5Yosys3logEPKcz(ptr noundef @.str.3)
  call void (ptr, ...) @_ZN5Yosys3logEPKcz(ptr noundef @.str.12)
  call void (ptr, ...) @_ZN5Yosys3logEPKcz(ptr noundef @.str.13)
  call void (ptr, ...) @_ZN5Yosys3logEPKcz(ptr noundef @.str.14)
  call void (ptr, ...) @_ZN5Yosys3logEPKcz(ptr noundef @.str.15)
  call void (ptr, ...) @_ZN5Yosys3logEPKcz(ptr noundef @.str.3)
  call void (ptr, ...) @_ZN5Yosys3logEPKcz(ptr noundef @.str.16)
  call void (ptr, ...) @_ZN5Yosys3logEPKcz(ptr noundef @.str.17)
  call void (ptr, ...) @_ZN5Yosys3logEPKcz(ptr noundef @.str.18)
  call void (ptr, ...) @_ZN5Yosys3logEPKcz(ptr noundef @.str.19)
  call void (ptr, ...) @_ZN5Yosys3logEPKcz(ptr noundef @.str.3)
  call void (ptr, ...) @_ZN5Yosys3logEPKcz(ptr noundef @.str.20)
  call void (ptr, ...) @_ZN5Yosys3logEPKcz(ptr noundef @.str.21)
  call void (ptr, ...) @_ZN5Yosys3logEPKcz(ptr noundef @.str.22)
  call void (ptr, ...) @_ZN5Yosys3logEPKcz(ptr noundef @.str.23)
  call void (ptr, ...) @_ZN5Yosys3logEPKcz(ptr noundef @.str.3)
  ret void
}